; Function Attrs: mustprogress nofree norecurse nosync nounwind willreturn memory(readwrite, inaccessiblemem: none) uwtable
define dso_local i32 @onig_check_callout_data_and_clear_old_values(ptr noundef readonly captures(none) %0) local_unnamed_addr #13 {
  %2 = getelementptr inbounds nuw i8, ptr %0, i64 72
  %3 = load ptr, ptr %2, align 8, !tbaa !43
  %4 = getelementptr inbounds nuw i8, ptr %3, i64 72
  %5 = load ptr, ptr %4, align 8, !tbaa !48
  %6 = getelementptr inbounds nuw i8, ptr %0, i64 8
  %7 = load i32, ptr %6, align 8, !tbaa !52
  %8 = getelementptr inbounds nuw i8, ptr %5, i64 56
  %9 = load ptr, ptr %8, align 8, !tbaa !41
  %10 = sext i32 %7 to i64
  %11 = getelementptr %struct.CalloutData, ptr %9, i64 %10
  %12 = getelementptr i8, ptr %11, i64 -128
  %13 = load i32, ptr %12, align 8, !tbaa !53
  %14 = getelementptr inbounds nuw i8, ptr %5, i64 48
  %15 = load i32, ptr %14, align 8, !tbaa !40
  %.not = icmp eq i32 %13, %15
  br i1 %.not, label %18, label %16

16:                                               ; preds = %1
  tail call void @llvm.memset.p0.i64(ptr noundef nonnull align 8 dereferenceable(128) %12, i8 0, i64 128, i1 false)
  %17 = load i32, ptr %14, align 8, !tbaa !40
  store i32 %17, ptr %12, align 8, !tbaa !53
  br label %18

18:                                               ; preds = %1, %16
  %.0 = phi i32 [ %17, %16 ], [ 0, %1 ]
  ret i32 %.0
}